target datalayout = "e-m:e-p270:32:32-p271:32:32-p272:64:64-i64:64-i128:128-f80:128-n8:16:32:64-S128"
target triple = "x86_64-pc-linux-gnu"

%struct._object = type { %union.anon, ptr }
%union.anon = type { i64 }

@_Py_NoneStruct = external global %struct._object, align 8
@.str.49 = private unnamed_addr constant [4 x i8] c"Oz#\00", align 1
@.str.51 = private unnamed_addr constant [17 x i8] c"PyErr_Occurred()\00", align 1
@.str.52 = private unnamed_addr constant [47 x i8] c"../cpython/Modules/_testlimitedcapi/abstract.c\00", align 1
@.str.53 = private unnamed_addr constant [18 x i8] c"!PyErr_Occurred()\00", align 1
@__PRETTY_FUNCTION__.mapping_delitemstring = private unnamed_addr constant [56 x i8] c"PyObject *mapping_delitemstring(PyObject *, PyObject *)\00", align 1

; Function Attrs: nounwind uwtable
define internal ptr @mapping_delitemstring(ptr noundef %0, ptr noundef %1) #0 {
  %3 = alloca ptr, align 8
  %4 = alloca ptr, align 8
  %5 = alloca ptr, align 8
  %6 = alloca ptr, align 8
  %7 = alloca ptr, align 8
  %8 = alloca i64, align 8
  %9 = alloca i32, align 4
  %10 = alloca i32, align 4
  store ptr %0, ptr %4, align 8, !tbaa !3
  store ptr %1, ptr %5, align 8, !tbaa !3
  call void @llvm.lifetime.start.p0(i64 8, ptr %6) #4
  call void @llvm.lifetime.start.p0(i64 8, ptr %7) #4
  call void @llvm.lifetime.start.p0(i64 8, ptr %8) #4
  %11 = load ptr, ptr %5, align 8, !tbaa !3
  %12 = call i32 (ptr, ptr, ...) @PyArg_ParseTuple(ptr noundef %11, ptr noundef @.str.49, ptr noundef %6, ptr noundef %7, ptr noundef %8)
  %13 = icmp ne i32 %12, 0
  br i1 %13, label %15, label %14

14:                                               ; preds = %2
  store ptr null, ptr %3, align 8
  store i32 1, ptr %9, align 4
  br label %49

15:                                               ; preds = %2
  br label %16

16:                                               ; preds = %15
  %17 = load ptr, ptr %6, align 8, !tbaa !3
  %18 = icmp eq ptr %17, @_Py_NoneStruct
  br i1 %18, label %19, label %20

19:                                               ; preds = %16
  store ptr null, ptr %6, align 8, !tbaa !3
  br label %20

20:                                               ; preds = %19, %16
  br label %21

21:                                               ; preds = %20
  br label %22

22:                                               ; preds = %21
  br label %23

23:                                               ; preds = %22
  call void @llvm.lifetime.start.p0(i64 4, ptr %10) #4
  %24 = load ptr, ptr %6, align 8, !tbaa !3
  %25 = load ptr, ptr %7, align 8, !tbaa !8
  %26 = call i32 @PyObject_DelItemString(ptr noundef %24, ptr noundef %25)
  store i32 %26, ptr %10, align 4, !tbaa !10
  %27 = load i32, ptr %10, align 4, !tbaa !10
  %28 = icmp eq i32 %27, -1
  br i1 %28, label %29, label %36

29:                                               ; preds = %23
  %30 = call ptr @PyErr_Occurred()
  %31 = icmp ne ptr %30, null
  br i1 %31, label %32, label %33

32:                                               ; preds = %29
  br label %35

33:                                               ; preds = %29
  call void @__assert_fail(ptr noundef @.str.51, ptr noundef @.str.52, i32 noundef 299, ptr noundef @__PRETTY_FUNCTION__.mapping_delitemstring) #5
  unreachable

34:                                               ; No predecessors!
  br label %35

35:                                               ; preds = %34, %32
  store ptr null, ptr %3, align 8
  store i32 1, ptr %9, align 4
  br label %46

36:                                               ; preds = %23
  %37 = call ptr @PyErr_Occurred()
  %38 = icmp ne ptr %37, null
  br i1 %38, label %40, label %39

39:                                               ; preds = %36
  br label %42

40:                                               ; preds = %36
  call void @__assert_fail(ptr noundef @.str.53, ptr noundef @.str.52, i32 noundef 299, ptr noundef @__PRETTY_FUNCTION__.mapping_delitemstring) #5
  unreachable

41:                                               ; No predecessors!
  br label %42

42:                                               ; preds = %41, %39
  %43 = load i32, ptr %10, align 4, !tbaa !10
  %44 = sext i32 %43 to i64
  %45 = call ptr @PyLong_FromLong(i64 noundef %44)
  store ptr %45, ptr %3, align 8
  store i32 1, ptr %9, align 4
  br label %46

46:                                               ; preds = %42, %35
  call void @llvm.lifetime.end.p0(i64 4, ptr %10) #4
  br label %49

47:                                               ; No predecessors!
  br label %48

48:                                               ; preds = %47
  store i32 0, ptr %9, align 4
  br label %49

49:                                               ; preds = %48, %46, %14
  call void @llvm.lifetime.end.p0(i64 8, ptr %8) #4
  call void @llvm.lifetime.end.p0(i64 8, ptr %7) #4
  call void @llvm.lifetime.end.p0(i64 8, ptr %6) #4
  %50 = load i32, ptr %9, align 4
  switch i32 %50, label %53 [
    i32 0, label %51
    i32 1, label %51
  ]

51:                                               ; preds = %49, %49
  %52 = load ptr, ptr %3, align 8
  ret ptr %52

53:                                               ; preds = %49
  unreachable
}