; Function Attrs: nounwind uwtable
define internal ptr @mapping_delitemstring(ptr readnone captures(none) %0, ptr noundef %1) #0 {
  %3 = alloca ptr, align 8
  %4 = alloca ptr, align 8
  %5 = alloca i64, align 8
  call void @llvm.lifetime.start.p0(i64 8, ptr nonnull %3) #4
  call void @llvm.lifetime.start.p0(i64 8, ptr nonnull %4) #4
  call void @llvm.lifetime.start.p0(i64 8, ptr nonnull %5) #4
  %6 = call i32 (ptr, ptr, ...) @PyArg_ParseTuple(ptr noundef %1, ptr noundef nonnull @.str.49, ptr noundef nonnull %3, ptr noundef nonnull %4, ptr noundef nonnull %5) #4
  %.not = icmp eq i32 %6, 0
  br i1 %.not, label %24, label %7

7:                                                ; preds = %2
  %8 = load ptr, ptr %3, align 8, !tbaa !3
  %9 = icmp eq ptr %8, @_Py_NoneStruct
  br i1 %9, label %10, label %11

10:                                               ; preds = %7
  store ptr null, ptr %3, align 8, !tbaa !3
  br label %11

11:                                               ; preds = %7, %10
  %12 = phi ptr [ %8, %7 ], [ null, %10 ]
  %13 = load ptr, ptr %4, align 8, !tbaa !8
  %14 = call i32 @PyObject_DelItemString(ptr noundef %12, ptr noundef %13) #4
  %15 = icmp eq i32 %14, -1
  %16 = call ptr @PyErr_Occurred() #4
  %.not5 = icmp eq ptr %16, null
  br i1 %15, label %17, label %19

17:                                               ; preds = %11
  br i1 %.not5, label %18, label %24

18:                                               ; preds = %17
  call void @__assert_fail(ptr noundef nonnull @.str.51, ptr noundef nonnull @.str.52, i32 noundef 299, ptr noundef nonnull @__PRETTY_FUNCTION__.mapping_delitemstring) #5
  unreachable

19:                                               ; preds = %11
  br i1 %.not5, label %21, label %20

20:                                               ; preds = %19
  call void @__assert_fail(ptr noundef nonnull @.str.53, ptr noundef nonnull @.str.52, i32 noundef 299, ptr noundef nonnull @__PRETTY_FUNCTION__.mapping_delitemstring) #5
  unreachable

21:                                               ; preds = %19
  %22 = sext i32 %14 to i64
  %23 = call ptr @PyLong_FromLong(i64 noundef %22) #4
  br label %24

24:                                               ; preds = %21, %17, %2
  %.0 = phi ptr [ null, %2 ], [ %23, %21 ], [ null, %17 ]
  call void @llvm.lifetime.end.p0(i64 8, ptr nonnull %5) #4
  call void @llvm.lifetime.end.p0(i64 8, ptr nonnull %4) #4
  call void @llvm.lifetime.end.p0(i64 8, ptr nonnull %3) #4
  ret ptr %.0
}